target datalayout = "e-m:e-p270:32:32-p271:32:32-p272:64:64-i64:64-i128:128-f80:128-n8:16:32:64-S128"
target triple = "x86_64-pc-linux-gnu"

%"class.std::__1::unique_ptr" = type { %"class.std::__1::__compressed_pair" }
%"class.std::__1::__compressed_pair" = type { %"struct.std::__1::__compressed_pair_elem" }
%"struct.std::__1::__compressed_pair_elem" = type { ptr }
%"class.mitsuba::Bitmap" = type { %"class.mitsuba::Object.base", %"class.std::__1::unique_ptr", i32, i32, %"struct.mitsuba::Vector", %"class.mitsuba::ref", i8, i8, i8, %"class.mitsuba::Properties" }
%"class.mitsuba::Object.base" = type <{ ptr, %"struct.std::__1::atomic" }>
%"struct.std::__1::atomic" = type { %"struct.std::__1::__atomic_base" }
%"struct.std::__1::__atomic_base" = type { %"struct.std::__1::__atomic_base.0" }
%"struct.std::__1::__atomic_base.0" = type { %"struct.std::__1::__cxx_atomic_impl" }
%"struct.std::__1::__cxx_atomic_impl" = type { %"struct.std::__1::__cxx_atomic_base_impl" }
%"struct.std::__1::__cxx_atomic_base_impl" = type { i32 }
%"struct.mitsuba::Vector" = type { %"struct.drjit::StaticArrayImpl" }
%"struct.drjit::StaticArrayImpl" = type { [2 x i32] }
%"class.mitsuba::ref" = type { ptr }
%"class.mitsuba::Properties" = type { %"class.std::__1::unique_ptr.2" }
%"class.std::__1::unique_ptr.2" = type { %"class.std::__1::__compressed_pair.3" }
%"class.std::__1::__compressed_pair.3" = type { %"struct.std::__1::__compressed_pair_elem.4" }
%"struct.std::__1::__compressed_pair_elem.4" = type { ptr }

; Function Attrs: mustprogress nounwind uwtable
define linkonce_odr hidden noundef nonnull align 8 dereferenceable(8) ptr @_ZNKSt3__122__compressed_pair_elemIPhLi0ELb0EE5__getB8ne190000Ev(ptr noundef nonnull align 8 dereferenceable(8) %0) #1 comdat align 2 {
  %2 = alloca ptr, align 8
  store ptr %0, ptr %2, align 8
  %3 = load ptr, ptr %2, align 8
  %4 = getelementptr inbounds %"struct.std::__1::__compressed_pair_elem", ptr %3, i32 0, i32 0
  ret ptr %4
}

; Function Attrs: mustprogress nounwind uwtable
define linkonce_odr hidden noundef nonnull align 8 dereferenceable(8) ptr @_ZNKSt3__117__compressed_pairIPhNS_14default_deleteIA_hEEE5firstB8ne190000Ev(ptr noundef nonnull align 8 dereferenceable(8) %0) #1 comdat align 2 {
  %2 = alloca ptr, align 8
  store ptr %0, ptr %2, align 8
  %3 = load ptr, ptr %2, align 8
  %4 = call noundef nonnull align 8 dereferenceable(8) ptr @_ZNKSt3__122__compressed_pair_elemIPhLi0ELb0EE5__getB8ne190000Ev(ptr noundef nonnull align 8 dereferenceable(8) %3) #29
  ret ptr %4
}

; Function Attrs: mustprogress nounwind uwtable
define linkonce_odr hidden noundef ptr @_ZNKSt3__110unique_ptrIA_hNS_14default_deleteIS1_EEE3getB8ne190000Ev(ptr noundef nonnull align 8 dereferenceable(8) %0) #1 comdat align 2 {
  %2 = alloca ptr, align 8
  store ptr %0, ptr %2, align 8
  %3 = load ptr, ptr %2, align 8
  %4 = getelementptr inbounds %"class.std::__1::unique_ptr", ptr %3, i32 0, i32 0
  %5 = call noundef nonnull align 8 dereferenceable(8) ptr @_ZNKSt3__117__compressed_pairIPhNS_14default_deleteIA_hEEE5firstB8ne190000Ev(ptr noundef nonnull align 8 dereferenceable(8) %4) #29
  %6 = load ptr, ptr %5, align 8
  ret ptr %6
}

; Function Attrs: mustprogress nounwind uwtable
define linkonce_odr noundef ptr @_ZN7mitsuba6Bitmap10uint8_dataEv(ptr noundef nonnull align 8 dereferenceable(64) %0) #1 comdat align 2 {
  %2 = alloca ptr, align 8
  store ptr %0, ptr %2, align 8
  %3 = load ptr, ptr %2, align 8
  %4 = getelementptr inbounds %"class.mitsuba::Bitmap", ptr %3, i32 0, i32 1
  %5 = call noundef ptr @_ZNKSt3__110unique_ptrIA_hNS_14default_deleteIS1_EEE3getB8ne190000Ev(ptr noundef nonnull align 8 dereferenceable(8) %4) #29
  ret ptr %5
}

; Function Attrs: mustprogress uwtable
define void @_ZN7mitsuba6Bitmap5vflipEv(ptr noundef nonnull align 8 dereferenceable(64) %0) #0 align 2 {
  %2 = alloca ptr, align 8
  %3 = alloca i64, align 8
  %4 = alloca ptr, align 8
  %5 = alloca i64, align 8
  %6 = alloca ptr, align 8
  %7 = alloca i64, align 8
  %8 = alloca ptr, align 8
  %9 = alloca ptr, align 8
  %10 = alloca ptr, align 8
  %11 = alloca ptr, align 8
  %12 = alloca ptr, align 8
  %13 = alloca ptr, align 8
  %14 = alloca ptr, align 8
  %15 = alloca i64, align 8
  %16 = alloca i64, align 8
  %17 = alloca ptr, align 8
  %18 = alloca ptr, align 8
  %19 = alloca i64, align 8
  %20 = alloca i64, align 8
  store ptr %0, ptr %14, align 8
  %21 = load ptr, ptr %14, align 8
  %22 = call noundef i64 @_ZNK7mitsuba6Bitmap11buffer_sizeEv(ptr noundef nonnull align 8 dereferenceable(64) %21)
  %23 = getelementptr inbounds %"class.mitsuba::Bitmap", ptr %21, i32 0, i32 4
  store ptr %23, ptr %11, align 8
  %24 = load ptr, ptr %11, align 8
  store ptr %24, ptr %10, align 8
  %25 = load ptr, ptr %10, align 8
  store ptr %25, ptr %6, align 8
  store i64 1, ptr %7, align 8
  %26 = load ptr, ptr %6, align 8
  %27 = load i64, ptr %7, align 8
  %28 = getelementptr inbounds [2 x i32], ptr %26, i64 0, i64 %27
  %29 = load i32, ptr %28, align 4
  %30 = zext i32 %29 to i64
  %31 = udiv i64 %22, %30
  store i64 %31, ptr %15, align 8
  %32 = getelementptr inbounds %"class.mitsuba::Bitmap", ptr %21, i32 0, i32 4
  store ptr %32, ptr %12, align 8
  %33 = load ptr, ptr %12, align 8
  store ptr %33, ptr %9, align 8
  %34 = load ptr, ptr %9, align 8
  store ptr %34, ptr %4, align 8
  store i64 1, ptr %5, align 8
  %35 = load ptr, ptr %4, align 8
  %36 = load i64, ptr %5, align 8
  %37 = getelementptr inbounds [2 x i32], ptr %35, i64 0, i64 %36
  %38 = load i32, ptr %37, align 4
  %39 = udiv i32 %38, 2
  %40 = zext i32 %39 to i64
  store i64 %40, ptr %16, align 8
  %41 = load i64, ptr %15, align 8
  %42 = alloca i8, i64 %41, align 16
  store ptr %42, ptr %17, align 8
  %43 = call noundef ptr @_ZN7mitsuba6Bitmap10uint8_dataEv(ptr noundef nonnull align 8 dereferenceable(64) %21)
  store ptr %43, ptr %18, align 8
  store i64 0, ptr %19, align 8
  %44 = getelementptr inbounds %"class.mitsuba::Bitmap", ptr %21, i32 0, i32 4
  store ptr %44, ptr %13, align 8
  %45 = load ptr, ptr %13, align 8
  store ptr %45, ptr %8, align 8
  %46 = load ptr, ptr %8, align 8
  store ptr %46, ptr %2, align 8
  store i64 1, ptr %3, align 8
  %47 = load ptr, ptr %2, align 8
  %48 = load i64, ptr %3, align 8
  %49 = getelementptr inbounds [2 x i32], ptr %47, i64 0, i64 %48
  %50 = load i32, ptr %49, align 4
  %51 = sub i32 %50, 1
  %52 = zext i32 %51 to i64
  store i64 %52, ptr %20, align 8
  br label %53

53:                                               ; preds = %85, %1
  %54 = load i64, ptr %19, align 8
  %55 = load i64, ptr %16, align 8
  %56 = icmp ult i64 %54, %55
  br i1 %56, label %57, label %88

57:                                               ; preds = %53
  %58 = load ptr, ptr %17, align 8
  %59 = load ptr, ptr %18, align 8
  %60 = load i64, ptr %19, align 8
  %61 = load i64, ptr %15, align 8
  %62 = mul i64 %60, %61
  %63 = getelementptr inbounds i8, ptr %59, i64 %62
  %64 = load i64, ptr %15, align 8
  call void @llvm.memcpy.p0.p0.i64(ptr align 1 %58, ptr align 1 %63, i64 %64, i1 false)
  %65 = load ptr, ptr %18, align 8
  %66 = load i64, ptr %19, align 8
  %67 = load i64, ptr %15, align 8
  %68 = mul i64 %66, %67
  %69 = getelementptr inbounds i8, ptr %65, i64 %68
  %70 = load ptr, ptr %18, align 8
  %71 = load i64, ptr %20, align 8
  %72 = load i64, ptr %15, align 8
  %73 = mul i64 %71, %72
  %74 = getelementptr inbounds i8, ptr %70, i64 %73
  %75 = load i64, ptr %15, align 8
  call void @llvm.memcpy.p0.p0.i64(ptr align 1 %69, ptr align 1 %74, i64 %75, i1 false)
  %76 = load ptr, ptr %18, align 8
  %77 = load i64, ptr %20, align 8
  %78 = load i64, ptr %15, align 8
  %79 = mul i64 %77, %78
  %80 = getelementptr inbounds i8, ptr %76, i64 %79
  %81 = load ptr, ptr %17, align 8
  %82 = load i64, ptr %15, align 8
  call void @llvm.memcpy.p0.p0.i64(ptr align 1 %80, ptr align 1 %81, i64 %82, i1 false)
  %83 = load i64, ptr %20, align 8
  %84 = add i64 %83, -1
  store i64 %84, ptr %20, align 8
  br label %85

85:                                               ; preds = %57
  %86 = load i64, ptr %19, align 8
  %87 = add i64 %86, 1
  store i64 %87, ptr %19, align 8
  br label %53, !llvm.loop !9

88:                                               ; preds = %53
  ret void
}