; Function Attrs: mustprogress uwtable
define void @_ZN7mitsuba6Bitmap5vflipEv(ptr noundef nonnull align 8 dereferenceable(64) %0) local_unnamed_addr #0 align 2 {
  %2 = tail call noundef i64 @_ZNK7mitsuba6Bitmap11buffer_sizeEv(ptr noundef nonnull align 8 dereferenceable(64) %0)
  %3 = getelementptr inbounds i8, ptr %0, i64 36
  %4 = load i32, ptr %3, align 4
  %5 = zext i32 %4 to i64
  %6 = udiv i64 %2, %5
  %7 = lshr i32 %4, 1
  %8 = zext nneg i32 %7 to i64
  %9 = alloca i8, i64 %6, align 16
  %10 = getelementptr inbounds i8, ptr %0, i64 16
  %11 = load ptr, ptr %10, align 8
  %.not = icmp ult i32 %4, 2
  br i1 %.not, label %._crit_edge, label %.lr.ph.preheader

.lr.ph.preheader:                                 ; preds = %1
  %12 = add i32 %4, -1
  %13 = zext i32 %12 to i64
  br label %.lr.ph

.lr.ph:                                           ; preds = %.lr.ph.preheader, %.lr.ph
  %.036 = phi i64 [ %18, %.lr.ph ], [ %13, %.lr.ph.preheader ]
  %.03435 = phi i64 [ %19, %.lr.ph ], [ 0, %.lr.ph.preheader ]
  %14 = mul i64 %.03435, %6
  %15 = getelementptr inbounds i8, ptr %11, i64 %14
  call void @llvm.memcpy.p0.p0.i64(ptr nonnull align 16 %9, ptr align 1 %15, i64 %6, i1 false)
  %16 = mul i64 %.036, %6
  %17 = getelementptr inbounds i8, ptr %11, i64 %16
  tail call void @llvm.memcpy.p0.p0.i64(ptr align 1 %15, ptr align 1 %17, i64 %6, i1 false)
  call void @llvm.memcpy.p0.p0.i64(ptr align 1 %17, ptr nonnull align 16 %9, i64 %6, i1 false)
  %18 = add nsw i64 %.036, -1
  %19 = add nuw nsw i64 %.03435, 1
  %exitcond.not = icmp eq i64 %19, %8
  br i1 %exitcond.not, label %._crit_edge, label %.lr.ph, !llvm.loop !25

._crit_edge:                                      ; preds = %.lr.ph, %1
  ret void
}